; Function Attrs: mustprogress nofree norecurse nosync nounwind willreturn memory(readwrite, inaccessiblemem: none) uwtable
define range(i32 0, 128) i32 @ff_vvc_sbt_flag(ptr noundef readonly captures(none) %0) local_unnamed_addr #2 {
  %2 = getelementptr inbounds nuw i8, ptr %0, i64 4547736
  %3 = load ptr, ptr %2, align 8, !tbaa !124
  %4 = getelementptr inbounds nuw i8, ptr %3, i64 12
  %5 = load i32, ptr %4, align 4, !tbaa !132
  %6 = getelementptr inbounds nuw i8, ptr %3, i64 16
  %7 = load i32, ptr %6, align 8, !tbaa !133
  %8 = mul nsw i32 %7, %5
  %9 = icmp slt i32 %8, 257
  %10 = getelementptr inbounds nuw i8, ptr %0, i64 4580560
  %11 = load ptr, ptr %10, align 16, !tbaa !67
  %12 = getelementptr inbounds nuw i8, ptr %11, i64 2672
  %13 = getelementptr inbounds nuw i8, ptr %11, i64 400
  %14 = select i1 %9, i64 97, i64 96
  %15 = getelementptr inbounds nuw %struct.VVCCabacState, ptr %13, i64 %14
  %16 = getelementptr inbounds nuw i8, ptr %11, i64 2676
  %17 = load i32, ptr %16, align 4, !tbaa !100
  %18 = ashr i32 %17, 5
  %19 = getelementptr inbounds nuw i8, ptr %15, i64 2
  %20 = load i16, ptr %19, align 2, !tbaa !58
  %21 = zext i16 %20 to i32
  %22 = load i16, ptr %15, align 2, !tbaa !58
  %23 = zext i16 %22 to i32
  %24 = shl nuw nsw i32 %23, 4
  %25 = add nuw nsw i32 %24, %21
  %.not.i = icmp samesign ult i32 %25, 16384
  %26 = sub nsw i32 32767, %25
  %27 = select i1 %.not.i, i32 %25, i32 %26
  %28 = ashr i32 %27, 9
  %29 = mul nsw i32 %28, %18
  %30 = ashr i32 %29, 1
  %31 = add nsw i32 %30, 4
  %32 = sub nsw i32 %17, %31
  %33 = shl i32 %32, 17
  %34 = load i32, ptr %12, align 8, !tbaa !70
  %35 = icmp slt i32 %33, %34
  %36 = select i1 %35, i32 %33, i32 0
  %37 = sub nsw i32 %34, %36
  %38 = select i1 %35, i32 %31, i32 %32
  %39 = sext i32 %38 to i64
  %40 = getelementptr inbounds i8, ptr @ff_h264_cabac_tables, i64 %39
  %41 = load i8, ptr %40, align 1, !tbaa !97
  %42 = zext i8 %41 to i32
  %43 = shl i32 %38, %42
  store i32 %43, ptr %16, align 4, !tbaa !100
  %44 = shl i32 %37, %42
  store i32 %44, ptr %12, align 8, !tbaa !70
  %45 = and i32 %44, 65535
  %.not42.i = icmp eq i32 %45, 0
  br i1 %.not42.i, label %46, label %vvc_get_cabac.exit

46:                                               ; preds = %1
  %47 = add nsw i32 %44, -1
  %48 = xor i32 %47, %44
  %49 = lshr i32 %48, 15
  %50 = zext nneg i32 %49 to i64
  %51 = getelementptr inbounds nuw i8, ptr @ff_h264_cabac_tables, i64 %50
  %52 = load i8, ptr %51, align 1, !tbaa !97
  %53 = zext i8 %52 to i32
  %54 = sub nsw i32 7, %53
  %55 = getelementptr inbounds nuw i8, ptr %11, i64 2688
  %56 = load ptr, ptr %55, align 8, !tbaa !68
  %57 = load i8, ptr %56, align 1, !tbaa !97
  %58 = zext i8 %57 to i32
  %59 = shl nuw nsw i32 %58, 9
  %60 = getelementptr inbounds nuw i8, ptr %56, i64 1
  %61 = load i8, ptr %60, align 1, !tbaa !97
  %62 = zext i8 %61 to i32
  %63 = shl nuw nsw i32 %62, 1
  %64 = or disjoint i32 %63, %59
  %65 = add nsw i32 %64, -65535
  %66 = shl nsw i32 %65, %54
  %67 = add i32 %66, %44
  store i32 %67, ptr %12, align 8, !tbaa !70
  %68 = getelementptr inbounds nuw i8, ptr %11, i64 2696
  %69 = load ptr, ptr %68, align 8, !tbaa !71
  %70 = icmp ult ptr %56, %69
  br i1 %70, label %71, label %vvc_get_cabac.exit

71:                                               ; preds = %46
  %72 = getelementptr inbounds nuw i8, ptr %56, i64 2
  store ptr %72, ptr %55, align 8, !tbaa !68
  br label %vvc_get_cabac.exit

vvc_get_cabac.exit:                               ; preds = %1, %46, %71
  %73 = lshr i32 %25, 14
  %74 = zext i1 %35 to i32
  %75 = xor i32 %73, %74
  %76 = getelementptr inbounds nuw i8, ptr %15, i64 4
  %77 = load i8, ptr %76, align 2, !tbaa !97
  %78 = zext i8 %77 to i32
  %79 = lshr i32 %23, %78
  %80 = sub nsw i32 %23, %79
  %81 = mul nuw nsw i32 %75, 1023
  %82 = lshr i32 %81, %78
  %83 = add nsw i32 %80, %82
  %84 = trunc i32 %83 to i16
  store i16 %84, ptr %15, align 2, !tbaa !58
  %85 = getelementptr inbounds nuw i8, ptr %15, i64 5
  %86 = load i8, ptr %85, align 1, !tbaa !97
  %87 = zext i8 %86 to i32
  %88 = lshr i32 %21, %87
  %89 = sub nsw i32 %21, %88
  %90 = mul nuw nsw i32 %75, 16383
  %91 = lshr i32 %90, %87
  %92 = add nsw i32 %89, %91
  %93 = trunc i32 %92 to i16
  store i16 %93, ptr %19, align 2, !tbaa !58
  ret i32 %75
}